target datalayout = "e-m:e-p270:32:32-p271:32:32-p272:64:64-i64:64-i128:128-f80:128-n8:16:32:64-S128"
target triple = "x86_64-pc-linux-gnu"

%struct.Int128_ = type { i64, i64 }
%struct.Int = type { %struct.Int128_, i32 }

; Function Attrs: nounwind uwtable
define dso_local zeroext i1 @i128_is_neg(i64 %0, i64 %1) #0 {
  %3 = alloca %struct.Int128_, align 8
  %4 = getelementptr inbounds { i64, i64 }, ptr %3, i32 0, i32 0
  store i64 %0, ptr %4, align 8
  %5 = getelementptr inbounds { i64, i64 }, ptr %3, i32 0, i32 1
  store i64 %1, ptr %5, align 8
  %6 = getelementptr inbounds %struct.Int128_, ptr %3, i32 0, i32 0
  %7 = load i64, ptr %6, align 8
  %8 = lshr i64 %7, 63
  %9 = icmp ne i64 %8, 0
  ret i1 %9
}

; Function Attrs: nounwind uwtable
define dso_local zeroext i1 @int_is_neg(ptr noundef byval(%struct.Int) align 8 %0) #0 {
  %2 = alloca i32, align 4
  %3 = alloca i1, align 1
  %4 = getelementptr inbounds %struct.Int, ptr %0, i32 0, i32 1
  %5 = load i32, ptr %4, align 8
  store i32 %5, ptr %2, align 4
  %6 = load i32, ptr %2, align 4
  %7 = icmp uge i32 %6, 8
  br i1 %7, label %8, label %11

8:                                                ; preds = %1
  %9 = load i32, ptr %2, align 4
  %10 = icmp ule i32 %9, 12
  br label %11

11:                                               ; preds = %8, %1
  %12 = phi i1 [ false, %1 ], [ %10, %8 ]
  br i1 %12, label %13, label %14

13:                                               ; preds = %11
  store i1 false, ptr %3, align 1
  br label %21

14:                                               ; preds = %11
  %15 = getelementptr inbounds %struct.Int, ptr %0, i32 0, i32 0
  %16 = getelementptr inbounds { i64, i64 }, ptr %15, i32 0, i32 0
  %17 = load i64, ptr %16, align 8
  %18 = getelementptr inbounds { i64, i64 }, ptr %15, i32 0, i32 1
  %19 = load i64, ptr %18, align 8
  %20 = call zeroext i1 @i128_is_neg(i64 %17, i64 %19)
  store i1 %20, ptr %3, align 1
  br label %21

21:                                               ; preds = %14, %13
  %22 = load i1, ptr %3, align 1
  ret i1 %22
}