; Function Attrs: mustprogress nofree norecurse nosync nounwind willreturn memory(argmem: read) uwtable
define dso_local zeroext i1 @int_is_neg(ptr noundef readonly byval(%struct.Int) align 8 captures(none) %0) local_unnamed_addr #8 {
  %2 = getelementptr inbounds nuw i8, ptr %0, i64 16
  %3 = load i32, ptr %2, align 8
  %4 = add i32 %3, -13
  %5 = icmp ult i32 %4, -5
  %6 = load i64, ptr %0, align 8
  %7 = icmp slt i64 %6, 0
  %.0 = select i1 %5, i1 %7, i1 false
  ret i1 %.0
}